target datalayout = "e-m:e-p270:32:32-p271:32:32-p272:64:64-i64:64-i128:128-f80:128-n8:16:32:64-S128"
target triple = "x86_64-pc-linux-gnu"

; Function Attrs: nounwind uwtable
define internal i32 @luaB_auxwrap(ptr noundef %0) #0 {
  %2 = alloca ptr, align 8
  %3 = alloca ptr, align 8
  %4 = alloca i32, align 4
  store ptr %0, ptr %2, align 8, !tbaa !4
  call void @llvm.lifetime.start.p0(i64 8, ptr %3) #5
  %5 = load ptr, ptr %2, align 8, !tbaa !4
  %6 = call ptr @lua_tothread(ptr noundef %5, i32 noundef -10003)
  store ptr %6, ptr %3, align 8, !tbaa !4
  call void @llvm.lifetime.start.p0(i64 4, ptr %4) #5
  %7 = load ptr, ptr %2, align 8, !tbaa !4
  %8 = load ptr, ptr %3, align 8, !tbaa !4
  %9 = load ptr, ptr %2, align 8, !tbaa !4
  %10 = call i32 @lua_gettop(ptr noundef %9)
  %11 = call i32 @auxresume(ptr noundef %7, ptr noundef %8, i32 noundef %10)
  store i32 %11, ptr %4, align 4, !tbaa !12
  %12 = load i32, ptr %4, align 4, !tbaa !12
  %13 = icmp slt i32 %12, 0
  br i1 %13, label %14, label %25

14:                                               ; preds = %1
  %15 = load ptr, ptr %2, align 8, !tbaa !4
  %16 = call i32 @lua_isstring(ptr noundef %15, i32 noundef -1)
  %17 = icmp ne i32 %16, 0
  br i1 %17, label %18, label %22

18:                                               ; preds = %14
  %19 = load ptr, ptr %2, align 8, !tbaa !4
  call void @luaL_where(ptr noundef %19, i32 noundef 1)
  %20 = load ptr, ptr %2, align 8, !tbaa !4
  call void @lua_insert(ptr noundef %20, i32 noundef -2)
  %21 = load ptr, ptr %2, align 8, !tbaa !4
  call void @lua_concat(ptr noundef %21, i32 noundef 2)
  br label %22

22:                                               ; preds = %18, %14
  %23 = load ptr, ptr %2, align 8, !tbaa !4
  %24 = call i32 @lua_error(ptr noundef %23)
  br label %25

25:                                               ; preds = %22, %1
  %26 = load i32, ptr %4, align 4, !tbaa !12
  call void @llvm.lifetime.end.p0(i64 4, ptr %4) #5
  call void @llvm.lifetime.end.p0(i64 8, ptr %3) #5
  ret i32 %26
}