; Function Attrs: nounwind uwtable
define internal i32 @luaB_auxwrap(ptr noundef %0) #0 {
  %2 = tail call ptr @lua_tothread(ptr noundef %0, i32 noundef -10003) #8
  %3 = tail call i32 @lua_gettop(ptr noundef %0) #8
  %4 = tail call fastcc i32 @auxresume(ptr noundef %0, ptr noundef %2, i32 noundef %3)
  %5 = icmp slt i32 %4, 0
  br i1 %5, label %6, label %11

6:                                                ; preds = %1
  %7 = tail call i32 @lua_isstring(ptr noundef %0, i32 noundef -1) #8
  %.not = icmp eq i32 %7, 0
  br i1 %.not, label %9, label %8

8:                                                ; preds = %6
  tail call void @luaL_where(ptr noundef %0, i32 noundef 1) #8
  tail call void @lua_insert(ptr noundef %0, i32 noundef -2) #8
  tail call void @lua_concat(ptr noundef %0, i32 noundef 2) #8
  br label %9

9:                                                ; preds = %8, %6
  %10 = tail call i32 @lua_error(ptr noundef %0) #8
  br label %11

11:                                               ; preds = %9, %1
  ret i32 %4
}